target datalayout = "e-m:e-p270:32:32-p271:32:32-p272:64:64-i64:64-i128:128-f80:128-n8:16:32:64-S128"
target triple = "x86_64-pc-linux-gnu"

%struct.prolog_state = type { ptr, i32, i32, i32, i32, i32 }
%struct.encoding = type { [4 x ptr], [2 x ptr], ptr, ptr, ptr, ptr, ptr, ptr, ptr, ptr, ptr, ptr, i32, i8, i8 }

@KW_SYSTEM = internal constant [7 x i8] c"SYSTEM\00", align 1
@KW_PUBLIC = internal constant [7 x i8] c"PUBLIC\00", align 1

; Function Attrs: nounwind uwtable
define internal i32 @common(ptr noundef %0, i32 noundef %1) #0 {
  %3 = alloca i32, align 4
  %4 = alloca ptr, align 8
  %5 = alloca i32, align 4
  store ptr %0, ptr %4, align 8, !tbaa !3
  store i32 %1, ptr %5, align 4, !tbaa !14
  %6 = load ptr, ptr %4, align 8, !tbaa !3
  %7 = getelementptr inbounds nuw %struct.prolog_state, ptr %6, i32 0, i32 4
  %8 = load i32, ptr %7, align 4, !tbaa !11
  %9 = icmp ne i32 %8, 0
  br i1 %9, label %14, label %10

10:                                               ; preds = %2
  %11 = load i32, ptr %5, align 4, !tbaa !14
  %12 = icmp eq i32 %11, 28
  br i1 %12, label %13, label %14

13:                                               ; preds = %10
  store i32 59, ptr %3, align 4
  br label %17

14:                                               ; preds = %10, %2
  %15 = load ptr, ptr %4, align 8, !tbaa !3
  %16 = getelementptr inbounds nuw %struct.prolog_state, ptr %15, i32 0, i32 0
  store ptr @error, ptr %16, align 8, !tbaa !8
  store i32 -1, ptr %3, align 4
  br label %17

17:                                               ; preds = %14, %13
  %18 = load i32, ptr %3, align 4
  ret i32 %18
}

; Function Attrs: nounwind uwtable
define internal i32 @notation1(ptr noundef %0, i32 noundef %1, ptr noundef %2, ptr noundef %3, ptr noundef %4) #0 {
  %6 = alloca i32, align 4
  %7 = alloca ptr, align 8
  %8 = alloca i32, align 4
  %9 = alloca ptr, align 8
  %10 = alloca ptr, align 8
  %11 = alloca ptr, align 8
  store ptr %0, ptr %7, align 8, !tbaa !3
  store i32 %1, ptr %8, align 4, !tbaa !14
  store ptr %2, ptr %9, align 8, !tbaa !15
  store ptr %3, ptr %10, align 8, !tbaa !15
  store ptr %4, ptr %11, align 8, !tbaa !17
  %12 = load i32, ptr %8, align 4, !tbaa !14
  switch i32 %12, label %39 [
    i32 15, label %13
    i32 18, label %14
  ]

13:                                               ; preds = %5
  store i32 17, ptr %6, align 4
  br label %43

14:                                               ; preds = %5
  %15 = load ptr, ptr %11, align 8, !tbaa !17
  %16 = getelementptr inbounds nuw %struct.encoding, ptr %15, i32 0, i32 2
  %17 = load ptr, ptr %16, align 8, !tbaa !19
  %18 = load ptr, ptr %11, align 8, !tbaa !17
  %19 = load ptr, ptr %9, align 8, !tbaa !15
  %20 = load ptr, ptr %10, align 8, !tbaa !15
  %21 = call i32 %17(ptr noundef %18, ptr noundef %19, ptr noundef %20, ptr noundef @KW_SYSTEM)
  %22 = icmp ne i32 %21, 0
  br i1 %22, label %23, label %26

23:                                               ; preds = %14
  %24 = load ptr, ptr %7, align 8, !tbaa !3
  %25 = getelementptr inbounds nuw %struct.prolog_state, ptr %24, i32 0, i32 0
  store ptr @notation3, ptr %25, align 8, !tbaa !8
  store i32 17, ptr %6, align 4
  br label %43

26:                                               ; preds = %14
  %27 = load ptr, ptr %11, align 8, !tbaa !17
  %28 = getelementptr inbounds nuw %struct.encoding, ptr %27, i32 0, i32 2
  %29 = load ptr, ptr %28, align 8, !tbaa !19
  %30 = load ptr, ptr %11, align 8, !tbaa !17
  %31 = load ptr, ptr %9, align 8, !tbaa !15
  %32 = load ptr, ptr %10, align 8, !tbaa !15
  %33 = call i32 %29(ptr noundef %30, ptr noundef %31, ptr noundef %32, ptr noundef @KW_PUBLIC)
  %34 = icmp ne i32 %33, 0
  br i1 %34, label %35, label %38

35:                                               ; preds = %26
  %36 = load ptr, ptr %7, align 8, !tbaa !3
  %37 = getelementptr inbounds nuw %struct.prolog_state, ptr %36, i32 0, i32 0
  store ptr @notation2, ptr %37, align 8, !tbaa !8
  store i32 17, ptr %6, align 4
  br label %43

38:                                               ; preds = %26
  br label %39

39:                                               ; preds = %5, %38
  %40 = load ptr, ptr %7, align 8, !tbaa !3
  %41 = load i32, ptr %8, align 4, !tbaa !14
  %42 = call i32 @common(ptr noundef %40, i32 noundef %41)
  store i32 %42, ptr %6, align 4
  br label %43

43:                                               ; preds = %39, %35, %23, %13
  %44 = load i32, ptr %6, align 4
  ret i32 %44
}