; Function Attrs: nounwind uwtable
define internal range(i32 -1, 60) i32 @notation1(ptr noundef captures(none) %0, i32 noundef %1, ptr noundef %2, ptr noundef %3, ptr noundef %4) #1 {
  switch i32 %1, label %13 [
    i32 15, label %common.exit
    i32 18, label %6
  ]

6:                                                ; preds = %5
  %7 = getelementptr inbounds nuw i8, ptr %4, i64 48
  %8 = load ptr, ptr %7, align 8, !tbaa !12
  %9 = tail call i32 %8(ptr noundef %4, ptr noundef %2, ptr noundef %3, ptr noundef nonnull @KW_SYSTEM) #5
  %.not = icmp eq i32 %9, 0
  br i1 %.not, label %10, label %common.exit.sink.split

10:                                               ; preds = %6
  %11 = load ptr, ptr %7, align 8, !tbaa !12
  %12 = tail call i32 %11(ptr noundef nonnull %4, ptr noundef %2, ptr noundef %3, ptr noundef nonnull @KW_PUBLIC) #5
  %.not13 = icmp eq i32 %12, 0
  br i1 %.not13, label %.thread, label %common.exit.sink.split

13:                                               ; preds = %5
  %14 = getelementptr inbounds nuw i8, ptr %0, i64 20
  %15 = load i32, ptr %14, align 4, !tbaa !9
  %16 = icmp eq i32 %15, 0
  %17 = icmp eq i32 %1, 28
  %or.cond.i = and i1 %17, %16
  br i1 %or.cond.i, label %common.exit, label %.thread

.thread:                                          ; preds = %10, %13
  br label %common.exit.sink.split

common.exit.sink.split:                           ; preds = %10, %6, %.thread
  %error.sink = phi ptr [ @error, %.thread ], [ @notation3, %6 ], [ @notation2, %10 ]
  %.0.ph = phi i32 [ -1, %.thread ], [ 17, %6 ], [ 17, %10 ]
  store ptr %error.sink, ptr %0, align 8, !tbaa !3
  br label %common.exit

common.exit:                                      ; preds = %common.exit.sink.split, %13, %5
  %.0 = phi i32 [ 17, %5 ], [ 59, %13 ], [ %.0.ph, %common.exit.sink.split ]
  ret i32 %.0
}